; Function Attrs: mustprogress uwtable
define noundef zeroext i1 @_ZNK7rocksdb10Compaction29InputCompressionMatchesOutputEv(ptr noundef nonnull align 16 dereferenceable(4788) %this) local_unnamed_addr #3 align 2 {
entry:
  %0 = load ptr, ptr %this, align 16
  %base_level_.i = getelementptr inbounds i8, ptr %0, i64 2800
  %1 = load i32, ptr %base_level_.i, align 16
  %mutable_cf_options_ = getelementptr inbounds i8, ptr %this, i64 912
  %start_level_ = getelementptr inbounds i8, ptr %this, i64 8
  %2 = load i32, ptr %start_level_, align 8
  %call3 = tail call noundef zeroext i8 @_ZN7rocksdb18GetCompressionTypeEPKNS_18VersionStorageInfoERKNS_16MutableCFOptionsEiib(ptr noundef %0, ptr noundef nonnull align 8 dereferenceable(560) %mutable_cf_options_, i32 noundef %2, i32 noundef %1, i1 noundef zeroext true)
  %output_compression_ = getelementptr inbounds i8, ptr %this, i64 4292
  %3 = load i8, ptr %output_compression_, align 4
  %cmp = icmp eq i8 %call3, %3
  ret i1 %cmp
}